target datalayout = "e-m:e-p270:32:32-p271:32:32-p272:64:64-i64:64-i128:128-f80:128-n8:16:32:64-S128"
target triple = "x86_64-pc-linux-gnu"

%"class.bParse::b3BulletFile" = type { %"class.bParse::bFile.base", ptr, %class.b3AlignedObjectArray.0, %class.b3AlignedObjectArray.0, %class.b3AlignedObjectArray.0, %class.b3AlignedObjectArray.0, %class.b3AlignedObjectArray.0, %class.b3AlignedObjectArray.0, %class.b3AlignedObjectArray.0, %class.b3AlignedObjectArray.0, %class.b3AlignedObjectArray.4 }
%"class.bParse::bFile.base" = type <{ ptr, [7 x i8], i8, ptr, i32, i32, %class.b3HashMap, i32, [4 x i8], ptr, ptr, %class.b3AlignedObjectArray.4, %class.b3AlignedObjectArray.4, %class.b3AlignedObjectArray.6, %class.b3HashMap.8, %class.b3HashMap, i32 }>
%class.b3AlignedObjectArray.6 = type <{ [4 x i8], i32, i32, [4 x i8], ptr, i8, [7 x i8] }>
%class.b3HashMap.8 = type { %class.b3AlignedObjectArray, %class.b3AlignedObjectArray, %class.b3AlignedObjectArray.6, %class.b3AlignedObjectArray.2 }
%class.b3AlignedObjectArray = type <{ [4 x i8], i32, i32, [4 x i8], ptr, i8, [7 x i8] }>
%class.b3AlignedObjectArray.2 = type <{ [4 x i8], i32, i32, [4 x i8], ptr, i8, [7 x i8] }>
%class.b3HashMap = type { %class.b3AlignedObjectArray, %class.b3AlignedObjectArray, %class.b3AlignedObjectArray.0, %class.b3AlignedObjectArray.2 }
%class.b3AlignedObjectArray.0 = type <{ [4 x i8], i32, i32, [4 x i8], ptr, i8, [7 x i8] }>
%class.b3AlignedObjectArray.4 = type <{ [4 x i8], i32, i32, [4 x i8], ptr, i8, [7 x i8] }>

@.str.5 = private unnamed_addr constant [17 x i8] c"b3Error[%s,%d]:\0A\00", align 1
@.str.6 = private unnamed_addr constant [134 x i8] c"generated/home/dtcxzyw/WorkSpace/Projects/compilers/llvm-opt-benchmark/bench/bullet3/bullet3/src/Bullet3Common/b3AlignedObjectArray.h\00", align 1
@.str.7 = private unnamed_addr constant [44 x i8] c"b3AlignedObjectArray reserve out-of-memory\0A\00", align 1

; Function Attrs: mustprogress uwtable
define linkonce_odr dso_local void @_ZN18b3AlignedAllocatorIPcLj16EE10deallocateEPS0_(ptr noundef nonnull align 1 dereferenceable(1) %0, ptr noundef %1) #0 comdat align 2 {
  %3 = alloca ptr, align 8
  %4 = alloca ptr, align 8
  store ptr %0, ptr %3, align 8, !tbaa !88
  store ptr %1, ptr %4, align 8, !tbaa !75
  %5 = load ptr, ptr %4, align 8, !tbaa !75
  call void @_Z21b3AlignedFreeInternalPv(ptr noundef %5)
  ret void
}

; Function Attrs: mustprogress uwtable
define linkonce_odr dso_local noundef ptr @_ZN18b3AlignedAllocatorIPcLj16EE8allocateEiPPKS0_(ptr noundef nonnull align 1 dereferenceable(1) %0, i32 noundef %1, ptr noundef %2) #0 comdat align 2 {
  %4 = alloca ptr, align 8
  %5 = alloca i32, align 4
  %6 = alloca ptr, align 8
  store ptr %0, ptr %4, align 8, !tbaa !88
  store i32 %1, ptr %5, align 4, !tbaa !36
  store ptr %2, ptr %6, align 8, !tbaa !90
  %7 = load i32, ptr %5, align 4, !tbaa !36
  %8 = sext i32 %7 to i64
  %9 = mul i64 8, %8
  %10 = call noundef ptr @_Z22b3AlignedAllocInternalmi(i64 noundef %9, i32 noundef 16)
  ret ptr %10
}

; Function Attrs: inlinehint mustprogress uwtable
define linkonce_odr dso_local void @_ZN20b3AlignedObjectArrayIPcE10deallocateEv(ptr noundef nonnull align 8 dereferenceable(25) %0) #10 comdat align 2 {
  %2 = alloca ptr, align 8
  store ptr %0, ptr %2, align 8, !tbaa !39
  %3 = load ptr, ptr %2, align 8
  %4 = getelementptr inbounds nuw %class.b3AlignedObjectArray.4, ptr %3, i32 0, i32 4
  %5 = load ptr, ptr %4, align 8, !tbaa !45
  %6 = icmp ne ptr %5, null
  br i1 %6, label %7, label %16

7:                                                ; preds = %1
  %8 = getelementptr inbounds nuw %class.b3AlignedObjectArray.4, ptr %3, i32 0, i32 5
  %9 = load i8, ptr %8, align 8, !tbaa !85, !range !52, !noundef !53
  %10 = trunc i8 %9 to i1
  br i1 %10, label %11, label %14

11:                                               ; preds = %7
  %12 = getelementptr inbounds nuw %class.b3AlignedObjectArray.4, ptr %3, i32 0, i32 4
  %13 = load ptr, ptr %12, align 8, !tbaa !45
  call void @_ZN18b3AlignedAllocatorIPcLj16EE10deallocateEPS0_(ptr noundef nonnull align 1 dereferenceable(1) %3, ptr noundef %13)
  br label %14

14:                                               ; preds = %11, %7
  %15 = getelementptr inbounds nuw %class.b3AlignedObjectArray.4, ptr %3, i32 0, i32 4
  store ptr null, ptr %15, align 8, !tbaa !45
  br label %16

16:                                               ; preds = %14, %1
  ret void
}

; Function Attrs: inlinehint mustprogress nounwind uwtable
define linkonce_odr dso_local void @_ZN20b3AlignedObjectArrayIPcE7destroyEii(ptr noundef nonnull align 8 dereferenceable(25) %0, i32 noundef %1, i32 noundef %2) #8 comdat align 2 {
  %4 = alloca ptr, align 8
  %5 = alloca i32, align 4
  %6 = alloca i32, align 4
  %7 = alloca i32, align 4
  store ptr %0, ptr %4, align 8, !tbaa !39
  store i32 %1, ptr %5, align 4, !tbaa !36
  store i32 %2, ptr %6, align 4, !tbaa !36
  call void @llvm.lifetime.start.p0(i64 4, ptr %7) #13
  %8 = load i32, ptr %5, align 4, !tbaa !36
  store i32 %8, ptr %7, align 4, !tbaa !36
  br label %9

9:                                                ; preds = %14, %3
  %10 = load i32, ptr %7, align 4, !tbaa !36
  %11 = load i32, ptr %6, align 4, !tbaa !36
  %12 = icmp slt i32 %10, %11
  br i1 %12, label %13, label %17

13:                                               ; preds = %9
  br label %14

14:                                               ; preds = %13
  %15 = load i32, ptr %7, align 4, !tbaa !36
  %16 = add nsw i32 %15, 1
  store i32 %16, ptr %7, align 4, !tbaa !36
  br label %9, !llvm.loop !87

17:                                               ; preds = %9
  call void @llvm.lifetime.end.p0(i64 4, ptr %7) #13
  ret void
}

; Function Attrs: inlinehint mustprogress nounwind uwtable
define linkonce_odr dso_local void @_ZNK20b3AlignedObjectArrayIPcE4copyEiiPS0_(ptr noundef nonnull align 8 dereferenceable(25) %0, i32 noundef %1, i32 noundef %2, ptr noundef %3) #8 comdat align 2 {
  %5 = alloca ptr, align 8
  %6 = alloca i32, align 4
  %7 = alloca i32, align 4
  %8 = alloca ptr, align 8
  %9 = alloca i32, align 4
  store ptr %0, ptr %5, align 8, !tbaa !39
  store i32 %1, ptr %6, align 4, !tbaa !36
  store i32 %2, ptr %7, align 4, !tbaa !36
  store ptr %3, ptr %8, align 8, !tbaa !75
  %10 = load ptr, ptr %5, align 8
  call void @llvm.lifetime.start.p0(i64 4, ptr %9) #13
  %11 = load i32, ptr %6, align 4, !tbaa !36
  store i32 %11, ptr %9, align 4, !tbaa !36
  br label %12

12:                                               ; preds = %27, %4
  %13 = load i32, ptr %9, align 4, !tbaa !36
  %14 = load i32, ptr %7, align 4, !tbaa !36
  %15 = icmp slt i32 %13, %14
  br i1 %15, label %16, label %30

16:                                               ; preds = %12
  %17 = load ptr, ptr %8, align 8, !tbaa !75
  %18 = load i32, ptr %9, align 4, !tbaa !36
  %19 = sext i32 %18 to i64
  %20 = getelementptr inbounds ptr, ptr %17, i64 %19
  %21 = getelementptr inbounds nuw %class.b3AlignedObjectArray.4, ptr %10, i32 0, i32 4
  %22 = load ptr, ptr %21, align 8, !tbaa !45
  %23 = load i32, ptr %9, align 4, !tbaa !36
  %24 = sext i32 %23 to i64
  %25 = getelementptr inbounds ptr, ptr %22, i64 %24
  %26 = load ptr, ptr %25, align 8, !tbaa !41
  store ptr %26, ptr %20, align 8, !tbaa !41
  br label %27

27:                                               ; preds = %16
  %28 = load i32, ptr %9, align 4, !tbaa !36
  %29 = add nsw i32 %28, 1
  store i32 %29, ptr %9, align 4, !tbaa !36
  br label %12, !llvm.loop !86

30:                                               ; preds = %12
  call void @llvm.lifetime.end.p0(i64 4, ptr %9) #13
  ret void
}

; Function Attrs: inlinehint mustprogress uwtable
define linkonce_odr dso_local noundef ptr @_ZN20b3AlignedObjectArrayIPcE8allocateEi(ptr noundef nonnull align 8 dereferenceable(25) %0, i32 noundef %1) #10 comdat align 2 {
  %3 = alloca ptr, align 8
  %4 = alloca ptr, align 8
  %5 = alloca i32, align 4
  store ptr %0, ptr %4, align 8, !tbaa !39
  store i32 %1, ptr %5, align 4, !tbaa !36
  %6 = load ptr, ptr %4, align 8
  %7 = load i32, ptr %5, align 4, !tbaa !36
  %8 = icmp ne i32 %7, 0
  br i1 %8, label %9, label %12

9:                                                ; preds = %2
  %10 = load i32, ptr %5, align 4, !tbaa !36
  %11 = call noundef ptr @_ZN18b3AlignedAllocatorIPcLj16EE8allocateEiPPKS0_(ptr noundef nonnull align 1 dereferenceable(1) %6, i32 noundef %10, ptr noundef null)
  store ptr %11, ptr %3, align 8
  br label %13

12:                                               ; preds = %2
  store ptr null, ptr %3, align 8
  br label %13

13:                                               ; preds = %12, %9
  %14 = load ptr, ptr %3, align 8
  ret ptr %14
}

; Function Attrs: inlinehint mustprogress uwtable
define linkonce_odr dso_local void @_ZN20b3AlignedObjectArrayIPcE7reserveEi(ptr noundef nonnull align 8 dereferenceable(25) %0, i32 noundef %1) #10 comdat align 2 {
  %3 = alloca ptr, align 8
  %4 = alloca i32, align 4
  %5 = alloca ptr, align 8
  store ptr %0, ptr %3, align 8, !tbaa !39
  store i32 %1, ptr %4, align 4, !tbaa !36
  %6 = load ptr, ptr %3, align 8
  %7 = call noundef i32 @_ZNK20b3AlignedObjectArrayIPcE8capacityEv(ptr noundef nonnull align 8 dereferenceable(25) %6)
  %8 = load i32, ptr %4, align 4, !tbaa !36
  %9 = icmp slt i32 %7, %8
  br i1 %9, label %10, label %29

10:                                               ; preds = %2
  call void @llvm.lifetime.start.p0(i64 8, ptr %5) #13
  %11 = load i32, ptr %4, align 4, !tbaa !36
  %12 = call noundef ptr @_ZN20b3AlignedObjectArrayIPcE8allocateEi(ptr noundef nonnull align 8 dereferenceable(25) %6, i32 noundef %11)
  store ptr %12, ptr %5, align 8, !tbaa !75
  %13 = load ptr, ptr %5, align 8, !tbaa !75
  %14 = icmp eq ptr %13, null
  br i1 %14, label %15, label %20

15:                                               ; preds = %10
  br label %16

16:                                               ; preds = %15
  call void (ptr, ...) @b3OutputErrorMessageVarArgsInternal(ptr noundef @.str.5, ptr noundef @.str.6, i32 noundef 301)
  call void (ptr, ...) @b3OutputErrorMessageVarArgsInternal(ptr noundef @.str.7)
  br label %17

17:                                               ; preds = %16
  br label %18

18:                                               ; preds = %17
  store i32 0, ptr %4, align 4, !tbaa !36
  %19 = getelementptr inbounds nuw %class.b3AlignedObjectArray.4, ptr %6, i32 0, i32 1
  store i32 0, ptr %19, align 4, !tbaa !44
  br label %20

20:                                               ; preds = %18, %10
  %21 = call noundef i32 @_ZNK20b3AlignedObjectArrayIPcE4sizeEv(ptr noundef nonnull align 8 dereferenceable(25) %6)
  %22 = load ptr, ptr %5, align 8, !tbaa !75
  call void @_ZNK20b3AlignedObjectArrayIPcE4copyEiiPS0_(ptr noundef nonnull align 8 dereferenceable(25) %6, i32 noundef 0, i32 noundef %21, ptr noundef %22)
  %23 = call noundef i32 @_ZNK20b3AlignedObjectArrayIPcE4sizeEv(ptr noundef nonnull align 8 dereferenceable(25) %6)
  call void @_ZN20b3AlignedObjectArrayIPcE7destroyEii(ptr noundef nonnull align 8 dereferenceable(25) %6, i32 noundef 0, i32 noundef %23)
  call void @_ZN20b3AlignedObjectArrayIPcE10deallocateEv(ptr noundef nonnull align 8 dereferenceable(25) %6)
  %24 = getelementptr inbounds nuw %class.b3AlignedObjectArray.4, ptr %6, i32 0, i32 5
  store i8 1, ptr %24, align 8, !tbaa !85
  %25 = load ptr, ptr %5, align 8, !tbaa !75
  %26 = getelementptr inbounds nuw %class.b3AlignedObjectArray.4, ptr %6, i32 0, i32 4
  store ptr %25, ptr %26, align 8, !tbaa !45
  %27 = load i32, ptr %4, align 4, !tbaa !36
  %28 = getelementptr inbounds nuw %class.b3AlignedObjectArray.4, ptr %6, i32 0, i32 2
  store i32 %27, ptr %28, align 8, !tbaa !84
  call void @llvm.lifetime.end.p0(i64 8, ptr %5) #13
  br label %29

29:                                               ; preds = %20, %2
  ret void
}

; Function Attrs: inlinehint mustprogress nounwind uwtable
define linkonce_odr dso_local noundef i32 @_ZN20b3AlignedObjectArrayIPcE9allocSizeEi(ptr noundef nonnull align 8 dereferenceable(25) %0, i32 noundef %1) #8 comdat align 2 {
  %3 = alloca ptr, align 8
  %4 = alloca i32, align 4
  store ptr %0, ptr %3, align 8, !tbaa !39
  store i32 %1, ptr %4, align 4, !tbaa !36
  %5 = load i32, ptr %4, align 4, !tbaa !36
  %6 = icmp ne i32 %5, 0
  br i1 %6, label %7, label %10

7:                                                ; preds = %2
  %8 = load i32, ptr %4, align 4, !tbaa !36
  %9 = mul nsw i32 %8, 2
  br label %11

10:                                               ; preds = %2
  br label %11

11:                                               ; preds = %10, %7
  %12 = phi i32 [ %9, %7 ], [ 1, %10 ]
  ret i32 %12
}

; Function Attrs: inlinehint mustprogress nounwind uwtable
define linkonce_odr dso_local noundef i32 @_ZNK20b3AlignedObjectArrayIPcE8capacityEv(ptr noundef nonnull align 8 dereferenceable(25) %0) #8 comdat align 2 {
  %2 = alloca ptr, align 8
  store ptr %0, ptr %2, align 8, !tbaa !39
  %3 = load ptr, ptr %2, align 8
  %4 = getelementptr inbounds nuw %class.b3AlignedObjectArray.4, ptr %3, i32 0, i32 2
  %5 = load i32, ptr %4, align 8, !tbaa !84
  ret i32 %5
}

; Function Attrs: inlinehint mustprogress nounwind uwtable
define linkonce_odr dso_local noundef i32 @_ZNK20b3AlignedObjectArrayIPcE4sizeEv(ptr noundef nonnull align 8 dereferenceable(25) %0) #8 comdat align 2 {
  %2 = alloca ptr, align 8
  store ptr %0, ptr %2, align 8, !tbaa !39
  %3 = load ptr, ptr %2, align 8
  %4 = getelementptr inbounds nuw %class.b3AlignedObjectArray.4, ptr %3, i32 0, i32 1
  %5 = load i32, ptr %4, align 4, !tbaa !44
  ret i32 %5
}

; Function Attrs: inlinehint mustprogress uwtable
define linkonce_odr dso_local void @_ZN20b3AlignedObjectArrayIPcE9push_backERKS0_(ptr noundef nonnull align 8 dereferenceable(25) %0, ptr noundef nonnull align 8 dereferenceable(8) %1) #10 comdat align 2 {
  %3 = alloca ptr, align 8
  %4 = alloca ptr, align 8
  %5 = alloca i32, align 4
  store ptr %0, ptr %3, align 8, !tbaa !39
  store ptr %1, ptr %4, align 8, !tbaa !75
  %6 = load ptr, ptr %3, align 8
  call void @llvm.lifetime.start.p0(i64 4, ptr %5) #13
  %7 = call noundef i32 @_ZNK20b3AlignedObjectArrayIPcE4sizeEv(ptr noundef nonnull align 8 dereferenceable(25) %6)
  store i32 %7, ptr %5, align 4, !tbaa !36
  %8 = load i32, ptr %5, align 4, !tbaa !36
  %9 = call noundef i32 @_ZNK20b3AlignedObjectArrayIPcE8capacityEv(ptr noundef nonnull align 8 dereferenceable(25) %6)
  %10 = icmp eq i32 %8, %9
  br i1 %10, label %11, label %14

11:                                               ; preds = %2
  %12 = call noundef i32 @_ZNK20b3AlignedObjectArrayIPcE4sizeEv(ptr noundef nonnull align 8 dereferenceable(25) %6)
  %13 = call noundef i32 @_ZN20b3AlignedObjectArrayIPcE9allocSizeEi(ptr noundef nonnull align 8 dereferenceable(25) %6, i32 noundef %12)
  call void @_ZN20b3AlignedObjectArrayIPcE7reserveEi(ptr noundef nonnull align 8 dereferenceable(25) %6, i32 noundef %13)
  br label %14

14:                                               ; preds = %11, %2
  %15 = getelementptr inbounds nuw %class.b3AlignedObjectArray.4, ptr %6, i32 0, i32 4
  %16 = load ptr, ptr %15, align 8, !tbaa !45
  %17 = getelementptr inbounds nuw %class.b3AlignedObjectArray.4, ptr %6, i32 0, i32 1
  %18 = load i32, ptr %17, align 4, !tbaa !44
  %19 = sext i32 %18 to i64
  %20 = getelementptr inbounds ptr, ptr %16, i64 %19
  %21 = load ptr, ptr %4, align 8, !tbaa !75
  %22 = load ptr, ptr %21, align 8, !tbaa !41
  store ptr %22, ptr %20, align 8, !tbaa !41
  %23 = getelementptr inbounds nuw %class.b3AlignedObjectArray.4, ptr %6, i32 0, i32 1
  %24 = load i32, ptr %23, align 4, !tbaa !44
  %25 = add nsw i32 %24, 1
  store i32 %25, ptr %23, align 4, !tbaa !44
  call void @llvm.lifetime.end.p0(i64 4, ptr %5) #13
  ret void
}

; Function Attrs: mustprogress uwtable
define dso_local void @_ZN6bParse12b3BulletFile12addDataBlockEPc(ptr noundef nonnull align 8 dereferenceable(840) %0, ptr noundef %1) unnamed_addr #0 align 2 {
  %3 = alloca ptr, align 8
  %4 = alloca ptr, align 8
  store ptr %0, ptr %3, align 8, !tbaa !4
  store ptr %1, ptr %4, align 8, !tbaa !41
  %5 = load ptr, ptr %3, align 8
  %6 = getelementptr inbounds nuw %"class.bParse::b3BulletFile", ptr %5, i32 0, i32 10
  call void @_ZN20b3AlignedObjectArrayIPcE9push_backERKS0_(ptr noundef nonnull align 8 dereferenceable(25) %6, ptr noundef nonnull align 8 dereferenceable(8) %4)
  ret void
}