; Function Attrs: mustprogress uwtable
define dso_local void @_ZN6bParse12b3BulletFile12addDataBlockEPc(ptr noundef nonnull align 8 captures(none) dereferenceable(840) %0, ptr noundef %1) unnamed_addr #0 align 2 {
  %3 = getelementptr inbounds nuw i8, ptr %0, i64 812
  %4 = load i32, ptr %3, align 4, !tbaa !23
  %5 = getelementptr inbounds nuw i8, ptr %0, i64 816
  %6 = load i32, ptr %5, align 8, !tbaa !24
  %7 = icmp eq i32 %4, %6
  br i1 %7, label %8, label %_ZN20b3AlignedObjectArrayIPcE9push_backERKS0_.exit

8:                                                ; preds = %2
  %.not.i.i = icmp eq i32 %4, 0
  %9 = shl nsw i32 %4, 1
  %10 = select i1 %.not.i.i, i32 1, i32 %9
  %11 = icmp slt i32 %4, %10
  br i1 %11, label %12, label %_ZN20b3AlignedObjectArrayIPcE9push_backERKS0_.exit

12:                                               ; preds = %8
  %.not.i.i.i = icmp eq i32 %10, 0
  br i1 %.not.i.i.i, label %_ZNK20b3AlignedObjectArrayIPcE4copyEiiPS0_.exit15.i.i, label %_ZN20b3AlignedObjectArrayIPcE8allocateEi.exit.i.i

_ZN20b3AlignedObjectArrayIPcE8allocateEi.exit.i.i: ; preds = %12
  %13 = sext i32 %10 to i64
  %14 = shl nsw i64 %13, 3
  %15 = tail call noundef ptr @_Z22b3AlignedAllocInternalmi(i64 noundef %14, i32 noundef 16)
  %16 = icmp eq ptr %15, null
  br i1 %16, label %_ZNK20b3AlignedObjectArrayIPcE4copyEiiPS0_.exit15.i.i, label %.split.i.i

.split.i.i:                                       ; preds = %_ZN20b3AlignedObjectArrayIPcE8allocateEi.exit.i.i
  %17 = load i32, ptr %3, align 4, !tbaa !23
  %18 = icmp sgt i32 %17, 0
  br i1 %18, label %.lr.ph.i.i.i, label %_ZNK20b3AlignedObjectArrayIPcE4copyEiiPS0_.exit.i.i

.lr.ph.i.i.i:                                     ; preds = %.split.i.i
  %19 = getelementptr inbounds nuw i8, ptr %0, i64 824
  %20 = load ptr, ptr %19, align 8, !tbaa !22
  %wide.trip.count.i.i.i = zext nneg i32 %17 to i64
  br label %21

21:                                               ; preds = %21, %.lr.ph.i.i.i
  %indvars.iv.i.i.i = phi i64 [ 0, %.lr.ph.i.i.i ], [ %indvars.iv.next.i.i.i, %21 ]
  %22 = getelementptr inbounds nuw ptr, ptr %15, i64 %indvars.iv.i.i.i
  %23 = getelementptr inbounds nuw ptr, ptr %20, i64 %indvars.iv.i.i.i
  %24 = load ptr, ptr %23, align 8, !tbaa !45
  store ptr %24, ptr %22, align 8, !tbaa !45
  %indvars.iv.next.i.i.i = add nuw nsw i64 %indvars.iv.i.i.i, 1
  %exitcond.not.i.i.i = icmp eq i64 %indvars.iv.next.i.i.i, %wide.trip.count.i.i.i
  br i1 %exitcond.not.i.i.i, label %_ZNK20b3AlignedObjectArrayIPcE4copyEiiPS0_.exit.i.i, label %21, !llvm.loop !76

_ZNK20b3AlignedObjectArrayIPcE4copyEiiPS0_.exit15.i.i: ; preds = %_ZN20b3AlignedObjectArrayIPcE8allocateEi.exit.i.i, %12
  tail call void (ptr, ...) @b3OutputErrorMessageVarArgsInternal(ptr noundef nonnull @.str.5, ptr noundef nonnull @.str.6, i32 noundef 301)
  tail call void (ptr, ...) @b3OutputErrorMessageVarArgsInternal(ptr noundef nonnull @.str.7)
  store i32 0, ptr %3, align 4, !tbaa !23
  br label %_ZNK20b3AlignedObjectArrayIPcE4copyEiiPS0_.exit.i.i

_ZNK20b3AlignedObjectArrayIPcE4copyEiiPS0_.exit.i.i: ; preds = %21, %_ZNK20b3AlignedObjectArrayIPcE4copyEiiPS0_.exit15.i.i, %.split.i.i
  %.pre3.i = phi i32 [ 0, %_ZNK20b3AlignedObjectArrayIPcE4copyEiiPS0_.exit15.i.i ], [ %17, %.split.i.i ], [ %17, %21 ]
  %.0.i18.i.i = phi ptr [ null, %_ZNK20b3AlignedObjectArrayIPcE4copyEiiPS0_.exit15.i.i ], [ %15, %.split.i.i ], [ %15, %21 ]
  %.0.i.i = phi i32 [ 0, %_ZNK20b3AlignedObjectArrayIPcE4copyEiiPS0_.exit15.i.i ], [ %10, %.split.i.i ], [ %10, %21 ]
  %25 = getelementptr inbounds nuw i8, ptr %0, i64 824
  %26 = load ptr, ptr %25, align 8, !tbaa !22
  %.not.i16.i.i = icmp eq ptr %26, null
  br i1 %.not.i16.i.i, label %_ZN20b3AlignedObjectArrayIPcE10deallocateEv.exit.i.i, label %27

27:                                               ; preds = %_ZNK20b3AlignedObjectArrayIPcE4copyEiiPS0_.exit.i.i
  %28 = getelementptr inbounds nuw i8, ptr %0, i64 832
  %29 = load i8, ptr %28, align 8, !tbaa !18, !range !43, !noundef !44
  %30 = trunc nuw i8 %29 to i1
  br i1 %30, label %31, label %_ZN20b3AlignedObjectArrayIPcE10deallocateEv.exit.i.i

31:                                               ; preds = %27
  tail call void @_Z21b3AlignedFreeInternalPv(ptr noundef nonnull %26)
  %.pre.pre.i = load i32, ptr %3, align 4, !tbaa !23
  br label %_ZN20b3AlignedObjectArrayIPcE10deallocateEv.exit.i.i

_ZN20b3AlignedObjectArrayIPcE10deallocateEv.exit.i.i: ; preds = %31, %27, %_ZNK20b3AlignedObjectArrayIPcE4copyEiiPS0_.exit.i.i
  %.pre.i = phi i32 [ %.pre.pre.i, %31 ], [ %.pre3.i, %27 ], [ %.pre3.i, %_ZNK20b3AlignedObjectArrayIPcE4copyEiiPS0_.exit.i.i ]
  %32 = getelementptr inbounds nuw i8, ptr %0, i64 832
  store i8 1, ptr %32, align 8, !tbaa !18
  store ptr %.0.i18.i.i, ptr %25, align 8, !tbaa !22
  store i32 %.0.i.i, ptr %5, align 8, !tbaa !24
  br label %_ZN20b3AlignedObjectArrayIPcE9push_backERKS0_.exit

_ZN20b3AlignedObjectArrayIPcE9push_backERKS0_.exit: ; preds = %2, %8, %_ZN20b3AlignedObjectArrayIPcE10deallocateEv.exit.i.i
  %33 = phi i32 [ %.pre.i, %_ZN20b3AlignedObjectArrayIPcE10deallocateEv.exit.i.i ], [ %4, %8 ], [ %4, %2 ]
  %34 = getelementptr inbounds nuw i8, ptr %0, i64 824
  %35 = load ptr, ptr %34, align 8, !tbaa !22
  %36 = sext i32 %33 to i64
  %37 = getelementptr inbounds ptr, ptr %35, i64 %36
  store ptr %1, ptr %37, align 8, !tbaa !45
  %38 = add nsw i32 %33, 1
  store i32 %38, ptr %3, align 4, !tbaa !23
  ret void
}